target datalayout = "e-m:e-p270:32:32-p271:32:32-p272:64:64-i64:64-i128:128-f80:128-n8:16:32:64-S128"
target triple = "x86_64-pc-linux-gnu"

%struct.stbtt_bakedchar = type { i16, i16, i16, i16, float, float, float }

@_ZL13g_circleVerts = internal global [64 x float] zeroinitializer, align 16
@.str.10 = private unnamed_addr constant [3 x i8] c"rb\00", align 1
@_ZL7g_cdata = internal global [96 x %struct.stbtt_bakedchar] zeroinitializer, align 16
@_ZL6g_ftex = internal global i32 0, align 4

; Function Attrs: mustprogress uwtable
define dso_local noundef zeroext i1 @_Z17imguiRenderGLInitPKc(ptr noundef %0) #0 {
  %2 = alloca i1, align 1
  %3 = alloca ptr, align 8
  %4 = alloca i32, align 4
  %5 = alloca float, align 4
  %6 = alloca ptr, align 8
  %7 = alloca i64, align 8
  %8 = alloca ptr, align 8
  %9 = alloca i64, align 8
  %10 = alloca ptr, align 8
  store ptr %0, ptr %3, align 8
  store i32 0, ptr %4, align 4
  br label %11

11:                                               ; preds = %34, %1
  %12 = load i32, ptr %4, align 4
  %13 = icmp slt i32 %12, 32
  br i1 %13, label %14, label %37

14:                                               ; preds = %11
  %15 = load i32, ptr %4, align 4
  %16 = sitofp i32 %15 to float
  %17 = fdiv float %16, 3.200000e+01
  %18 = fmul float %17, 0x400921FB60000000
  %19 = fmul float %18, 2.000000e+00
  store float %19, ptr %5, align 4
  %20 = load float, ptr %5, align 4
  %21 = call float @cosf(float noundef %20) #10
  %22 = load i32, ptr %4, align 4
  %23 = mul nsw i32 %22, 2
  %24 = add nsw i32 %23, 0
  %25 = sext i32 %24 to i64
  %26 = getelementptr inbounds [64 x float], ptr @_ZL13g_circleVerts, i64 0, i64 %25
  store float %21, ptr %26, align 4
  %27 = load float, ptr %5, align 4
  %28 = call float @sinf(float noundef %27) #10
  %29 = load i32, ptr %4, align 4
  %30 = mul nsw i32 %29, 2
  %31 = add nsw i32 %30, 1
  %32 = sext i32 %31 to i64
  %33 = getelementptr inbounds [64 x float], ptr @_ZL13g_circleVerts, i64 0, i64 %32
  store float %28, ptr %33, align 4
  br label %34

34:                                               ; preds = %14
  %35 = load i32, ptr %4, align 4
  %36 = add nsw i32 %35, 1
  store i32 %36, ptr %4, align 4
  br label %11, !llvm.loop !50

37:                                               ; preds = %11
  %38 = load ptr, ptr %3, align 8
  %39 = call noalias ptr @fopen(ptr noundef %38, ptr noundef @.str.10)
  store ptr %39, ptr %6, align 8
  %40 = load ptr, ptr %6, align 8
  %41 = icmp ne ptr %40, null
  br i1 %41, label %43, label %42

42:                                               ; preds = %37
  store i1 false, ptr %2, align 1
  br label %99

43:                                               ; preds = %37
  %44 = load ptr, ptr %6, align 8
  %45 = call i32 @fseek(ptr noundef %44, i64 noundef 0, i32 noundef 2)
  %46 = icmp ne i32 %45, 0
  br i1 %46, label %47, label %50

47:                                               ; preds = %43
  %48 = load ptr, ptr %6, align 8
  %49 = call i32 @fclose(ptr noundef %48)
  store i1 false, ptr %2, align 1
  br label %99

50:                                               ; preds = %43
  %51 = load ptr, ptr %6, align 8
  %52 = call i64 @ftell(ptr noundef %51)
  store i64 %52, ptr %7, align 8
  %53 = load i64, ptr %7, align 8
  %54 = icmp slt i64 %53, 0
  br i1 %54, label %55, label %58

55:                                               ; preds = %50
  %56 = load ptr, ptr %6, align 8
  %57 = call i32 @fclose(ptr noundef %56)
  store i1 false, ptr %2, align 1
  br label %99

58:                                               ; preds = %50
  %59 = load ptr, ptr %6, align 8
  %60 = call i32 @fseek(ptr noundef %59, i64 noundef 0, i32 noundef 0)
  %61 = icmp ne i32 %60, 0
  br i1 %61, label %62, label %65

62:                                               ; preds = %58
  %63 = load ptr, ptr %6, align 8
  %64 = call i32 @fclose(ptr noundef %63)
  store i1 false, ptr %2, align 1
  br label %99

65:                                               ; preds = %58
  %66 = load i64, ptr %7, align 8
  %67 = call noalias ptr @malloc(i64 noundef %66) #9
  store ptr %67, ptr %8, align 8
  %68 = load ptr, ptr %8, align 8
  %69 = icmp ne ptr %68, null
  br i1 %69, label %73, label %70

70:                                               ; preds = %65
  %71 = load ptr, ptr %6, align 8
  %72 = call i32 @fclose(ptr noundef %71)
  store i1 false, ptr %2, align 1
  br label %99

73:                                               ; preds = %65
  %74 = load ptr, ptr %8, align 8
  %75 = load i64, ptr %7, align 8
  %76 = load ptr, ptr %6, align 8
  %77 = call i64 @fread(ptr noundef %74, i64 noundef 1, i64 noundef %75, ptr noundef %76)
  store i64 %77, ptr %9, align 8
  %78 = load ptr, ptr %6, align 8
  %79 = call i32 @fclose(ptr noundef %78)
  %80 = load i64, ptr %9, align 8
  %81 = load i64, ptr %7, align 8
  %82 = icmp ne i64 %80, %81
  br i1 %82, label %83, label %85

83:                                               ; preds = %73
  %84 = load ptr, ptr %8, align 8
  call void @free(ptr noundef %84) #10
  store i1 false, ptr %2, align 1
  br label %99

85:                                               ; preds = %73
  store ptr null, ptr %6, align 8
  %86 = call noalias ptr @malloc(i64 noundef 262144) #9
  store ptr %86, ptr %10, align 8
  %87 = load ptr, ptr %10, align 8
  %88 = icmp ne ptr %87, null
  br i1 %88, label %91, label %89

89:                                               ; preds = %85
  %90 = load ptr, ptr %8, align 8
  call void @free(ptr noundef %90) #10
  store i1 false, ptr %2, align 1
  br label %99

91:                                               ; preds = %85
  %92 = load ptr, ptr %8, align 8
  %93 = load ptr, ptr %10, align 8
  %94 = call i32 @stbtt_BakeFontBitmap(ptr noundef %92, i32 noundef 0, float noundef 1.500000e+01, ptr noundef %93, i32 noundef 512, i32 noundef 512, i32 noundef 32, i32 noundef 96, ptr noundef @_ZL7g_cdata)
  call void @glGenTextures(i32 noundef 1, ptr noundef @_ZL6g_ftex)
  %95 = load i32, ptr @_ZL6g_ftex, align 4
  call void @glBindTexture(i32 noundef 3553, i32 noundef %95)
  %96 = load ptr, ptr %10, align 8
  call void @glTexImage2D(i32 noundef 3553, i32 noundef 0, i32 noundef 6406, i32 noundef 512, i32 noundef 512, i32 noundef 0, i32 noundef 6406, i32 noundef 5121, ptr noundef %96)
  call void @glTexParameteri(i32 noundef 3553, i32 noundef 10241, i32 noundef 9729)
  call void @glTexParameteri(i32 noundef 3553, i32 noundef 10240, i32 noundef 9729)
  %97 = load ptr, ptr %8, align 8
  call void @free(ptr noundef %97) #10
  %98 = load ptr, ptr %10, align 8
  call void @free(ptr noundef %98) #10
  store i1 true, ptr %2, align 1
  br label %99

99:                                               ; preds = %91, %89, %83, %70, %62, %55, %47, %42
  %100 = load i1, ptr %2, align 1
  ret i1 %100
}