; Function Attrs: mustprogress uwtable
define dso_local noundef zeroext i1 @_Z17imguiRenderGLInitPKc(ptr noundef readonly captures(none) %0) local_unnamed_addr #19 {
  br label %2

2:                                                ; preds = %1, %2
  %indvars.iv = phi i64 [ 0, %1 ], [ %indvars.iv.next, %2 ]
  %3 = trunc nuw nsw i64 %indvars.iv to i32
  %4 = uitofp nneg i32 %3 to float
  %5 = fmul float %4, 3.125000e-02
  %6 = fmul float %5, 0x400921FB60000000
  %7 = fmul float %6, 2.000000e+00
  %8 = tail call float @cosf(float noundef %7) #28
  %9 = shl nuw nsw i64 %indvars.iv, 1
  %10 = getelementptr inbounds nuw [64 x float], ptr @_ZL13g_circleVerts, i64 0, i64 %9
  store float %8, ptr %10, align 8
  %11 = tail call float @sinf(float noundef %7) #28
  %12 = or disjoint i64 %9, 1
  %13 = getelementptr inbounds nuw [64 x float], ptr @_ZL13g_circleVerts, i64 0, i64 %12
  store float %11, ptr %13, align 4
  %indvars.iv.next = add nuw nsw i64 %indvars.iv, 1
  %exitcond.not = icmp eq i64 %indvars.iv.next, 32
  br i1 %exitcond.not, label %14, label %2, !llvm.loop !61

14:                                               ; preds = %2
  %15 = tail call noalias ptr @fopen(ptr noundef %0, ptr noundef nonnull @.str.10)
  %.not = icmp eq ptr %15, null
  br i1 %.not, label %43, label %16

16:                                               ; preds = %14
  %17 = tail call i32 @fseek(ptr noundef nonnull %15, i64 noundef 0, i32 noundef 2)
  %.not38 = icmp eq i32 %17, 0
  br i1 %.not38, label %20, label %18

18:                                               ; preds = %16
  %19 = tail call i32 @fclose(ptr noundef nonnull %15)
  br label %43

20:                                               ; preds = %16
  %21 = tail call i64 @ftell(ptr noundef nonnull %15)
  %22 = icmp slt i64 %21, 0
  br i1 %22, label %23, label %25

23:                                               ; preds = %20
  %24 = tail call i32 @fclose(ptr noundef nonnull %15)
  br label %43

25:                                               ; preds = %20
  %26 = tail call i32 @fseek(ptr noundef nonnull %15, i64 noundef 0, i32 noundef 0)
  %.not39 = icmp eq i32 %26, 0
  br i1 %.not39, label %29, label %27

27:                                               ; preds = %25
  %28 = tail call i32 @fclose(ptr noundef nonnull %15)
  br label %43

29:                                               ; preds = %25
  %30 = tail call noalias ptr @malloc(i64 noundef %21) #27
  %.not40 = icmp eq ptr %30, null
  br i1 %.not40, label %31, label %33

31:                                               ; preds = %29
  %32 = tail call i32 @fclose(ptr noundef nonnull %15)
  br label %43

33:                                               ; preds = %29
  %34 = tail call i64 @fread(ptr noundef nonnull %30, i64 noundef 1, i64 noundef %21, ptr noundef nonnull %15)
  %35 = tail call i32 @fclose(ptr noundef nonnull %15)
  %.not41 = icmp eq i64 %34, %21
  br i1 %.not41, label %37, label %36

36:                                               ; preds = %33
  tail call void @free(ptr noundef nonnull %30) #28
  br label %43

37:                                               ; preds = %33
  %38 = tail call noalias dereferenceable_or_null(262144) ptr @malloc(i64 noundef 262144) #27
  %.not42 = icmp eq ptr %38, null
  br i1 %.not42, label %39, label %40

39:                                               ; preds = %37
  tail call void @free(ptr noundef nonnull %30) #28
  br label %43

40:                                               ; preds = %37
  %41 = tail call i32 @stbtt_BakeFontBitmap(ptr noundef nonnull %30, i32 noundef 0, float noundef 1.500000e+01, ptr noundef nonnull %38, i32 noundef 512, i32 noundef 512, i32 noundef 32, i32 noundef 96, ptr noundef nonnull @_ZL7g_cdata)
  tail call void @glGenTextures(i32 noundef 1, ptr noundef nonnull @_ZL6g_ftex)
  %42 = load i32, ptr @_ZL6g_ftex, align 4
  tail call void @glBindTexture(i32 noundef 3553, i32 noundef %42)
  tail call void @glTexImage2D(i32 noundef 3553, i32 noundef 0, i32 noundef 6406, i32 noundef 512, i32 noundef 512, i32 noundef 0, i32 noundef 6406, i32 noundef 5121, ptr noundef nonnull %38)
  tail call void @glTexParameteri(i32 noundef 3553, i32 noundef 10241, i32 noundef 9729)
  tail call void @glTexParameteri(i32 noundef 3553, i32 noundef 10240, i32 noundef 9729)
  tail call void @free(ptr noundef nonnull %30) #28
  tail call void @free(ptr noundef nonnull %38) #28
  br label %43

43:                                               ; preds = %14, %40, %39, %36, %31, %27, %23, %18
  %.0 = phi i1 [ false, %18 ], [ false, %23 ], [ false, %27 ], [ false, %36 ], [ true, %40 ], [ false, %39 ], [ false, %31 ], [ false, %14 ]
  ret i1 %.0
}